(i__main__
Person
p0
(dp1
S'age'
p2
I2
sS'name'
p3
S'aGood'
p4
sb.(i__main__
Person
p0
(dp1
S'age'
p2
I3
sS'name'
p3
S'bGood'
p4
sb.(i__main__
Person
p0
(dp1
S'age'
p2
I4
sS'name'
p3
S'cGood'
p4
sb.(i__main__
Person
p0
(dp1
S'age'
p2
I2
sS'name'
p3
S'aGood'
p4
sb.(i__main__
Person
p0
(dp1
S'age'
p2
I3
sS'name'
p3
S'bGood'
p4
sb.(i__main__
Person
p0
(dp1
S'age'
p2
I4
sS'name'
p3
S'cGood'
p4
sb.